target datalayout = "e-m:e-p270:32:32-p271:32:32-p272:64:64-i64:64-i128:128-f80:128-n8:16:32:64-S128"
target triple = "x86_64-pc-linux-gnu"

%struct.AVFormatContext = type { ptr, ptr, ptr, ptr, ptr, i32, i32, ptr, i32, ptr, i32, ptr, ptr, i64, i64, i64, i32, i32, i32, i64, i64, ptr, i32, i32, ptr, i32, i32, i32, i32, ptr, i64, i32, i32, %struct.AVIOInterruptCB, i32, i32, i32, i32, i64, i32, i32, i32, i32, i32, i32, i32, i32, i32, i32, i32, i32, i64, i32, i32, i32, i32, i32, ptr, ptr, ptr, ptr, i32, ptr, ptr, ptr, ptr, i32, ptr, ptr, i64, ptr, ptr, ptr, i64 }
%struct.AVIOInterruptCB = type { ptr, ptr }
%struct.LATMContext = type { ptr, i32, i32, i32, i32, i32, [10239 x i8] }
%struct.MPEG4AudioConfig = type { i32, i32, i32, i32, i32, i32, i32, i32, i32, i32, i32, i32 }

@.str.10 = private unnamed_addr constant [47 x i8] c"Extradata is larger than currently supported.\0A\00", align 1
@.str.11 = private unnamed_addr constant [37 x i8] c"BUG: ALS offset is not byte-aligned\0A\00", align 1
@.str.12 = private unnamed_addr constant [47 x i8] c"Muxing MPEG-4 AOT %d in LATM is not supported\0A\00", align 1

; Function Attrs: nounwind uwtable
define internal i32 @latm_decode_extradata(ptr noundef %0, ptr noundef %1, i32 noundef %2) #0 {
  %4 = alloca i32, align 4
  %5 = alloca ptr, align 8
  %6 = alloca ptr, align 8
  %7 = alloca i32, align 4
  %8 = alloca ptr, align 8
  %9 = alloca %struct.MPEG4AudioConfig, align 4
  %10 = alloca i32, align 4
  store ptr %0, ptr %5, align 8, !tbaa !4
  store ptr %1, ptr %6, align 8, !tbaa !51
  store i32 %2, ptr %7, align 4, !tbaa !53
  call void @llvm.lifetime.start.p0(i64 8, ptr %8) #8
  %11 = load ptr, ptr %5, align 8, !tbaa !4
  %12 = getelementptr inbounds nuw %struct.AVFormatContext, ptr %11, i32 0, i32 3
  %13 = load ptr, ptr %12, align 8, !tbaa !43
  store ptr %13, ptr %8, align 8, !tbaa !44
  call void @llvm.lifetime.start.p0(i64 48, ptr %9) #8
  %14 = load i32, ptr %7, align 4, !tbaa !53
  %15 = icmp sgt i32 %14, 1024
  br i1 %15, label %16, label %18

16:                                               ; preds = %3
  %17 = load ptr, ptr %5, align 8, !tbaa !4
  call void (ptr, i32, ptr, ...) @av_log(ptr noundef %17, i32 noundef 16, ptr noundef @.str.10)
  store i32 -1094995529, ptr %4, align 4
  store i32 1, ptr %10, align 4
  br label %67

18:                                               ; preds = %3
  %19 = load ptr, ptr %6, align 8, !tbaa !51
  %20 = load i32, ptr %7, align 4, !tbaa !53
  %21 = load ptr, ptr %5, align 8, !tbaa !4
  %22 = call i32 @avpriv_mpeg4audio_get_config2(ptr noundef %9, ptr noundef %19, i32 noundef %20, i32 noundef 1, ptr noundef %21)
  %23 = load ptr, ptr %8, align 8, !tbaa !44
  %24 = getelementptr inbounds nuw %struct.LATMContext, ptr %23, i32 0, i32 1
  store i32 %22, ptr %24, align 8, !tbaa !56
  %25 = load ptr, ptr %8, align 8, !tbaa !44
  %26 = getelementptr inbounds nuw %struct.LATMContext, ptr %25, i32 0, i32 1
  %27 = load i32, ptr %26, align 8, !tbaa !56
  %28 = icmp slt i32 %27, 0
  br i1 %28, label %29, label %33

29:                                               ; preds = %18
  %30 = load ptr, ptr %8, align 8, !tbaa !44
  %31 = getelementptr inbounds nuw %struct.LATMContext, ptr %30, i32 0, i32 1
  %32 = load i32, ptr %31, align 8, !tbaa !56
  store i32 %32, ptr %4, align 4
  store i32 1, ptr %10, align 4
  br label %67

33:                                               ; preds = %18
  %34 = load ptr, ptr %8, align 8, !tbaa !44
  %35 = getelementptr inbounds nuw %struct.LATMContext, ptr %34, i32 0, i32 3
  %36 = load i32, ptr %35, align 8, !tbaa !58
  %37 = icmp eq i32 %36, 36
  br i1 %37, label %38, label %46

38:                                               ; preds = %33
  %39 = load ptr, ptr %8, align 8, !tbaa !44
  %40 = getelementptr inbounds nuw %struct.LATMContext, ptr %39, i32 0, i32 1
  %41 = load i32, ptr %40, align 8, !tbaa !56
  %42 = and i32 %41, 7
  %43 = icmp ne i32 %42, 0
  br i1 %43, label %44, label %46

44:                                               ; preds = %38
  %45 = load ptr, ptr %5, align 8, !tbaa !4
  call void (ptr, i32, ptr, ...) @av_log(ptr noundef %45, i32 noundef 16, ptr noundef @.str.11)
  store i32 -1094995529, ptr %4, align 4
  store i32 1, ptr %10, align 4
  br label %67

46:                                               ; preds = %38, %33
  %47 = getelementptr inbounds nuw %struct.MPEG4AudioConfig, ptr %9, i32 0, i32 0
  %48 = load i32, ptr %47, align 4, !tbaa !59
  %49 = icmp sgt i32 %48, 5
  br i1 %49, label %50, label %58

50:                                               ; preds = %46
  %51 = getelementptr inbounds nuw %struct.MPEG4AudioConfig, ptr %9, i32 0, i32 0
  %52 = load i32, ptr %51, align 4, !tbaa !59
  %53 = icmp ne i32 %52, 36
  br i1 %53, label %54, label %58

54:                                               ; preds = %50
  %55 = load ptr, ptr %5, align 8, !tbaa !4
  %56 = getelementptr inbounds nuw %struct.MPEG4AudioConfig, ptr %9, i32 0, i32 0
  %57 = load i32, ptr %56, align 4, !tbaa !59
  call void (ptr, i32, ptr, ...) @av_log(ptr noundef %55, i32 noundef 16, ptr noundef @.str.12, i32 noundef %57)
  store i32 -1094995529, ptr %4, align 4
  store i32 1, ptr %10, align 4
  br label %67

58:                                               ; preds = %50, %46
  %59 = getelementptr inbounds nuw %struct.MPEG4AudioConfig, ptr %9, i32 0, i32 3
  %60 = load i32, ptr %59, align 4, !tbaa !61
  %61 = load ptr, ptr %8, align 8, !tbaa !44
  %62 = getelementptr inbounds nuw %struct.LATMContext, ptr %61, i32 0, i32 2
  store i32 %60, ptr %62, align 4, !tbaa !62
  %63 = getelementptr inbounds nuw %struct.MPEG4AudioConfig, ptr %9, i32 0, i32 0
  %64 = load i32, ptr %63, align 4, !tbaa !59
  %65 = load ptr, ptr %8, align 8, !tbaa !44
  %66 = getelementptr inbounds nuw %struct.LATMContext, ptr %65, i32 0, i32 3
  store i32 %64, ptr %66, align 8, !tbaa !58
  store i32 0, ptr %4, align 4
  store i32 1, ptr %10, align 4
  br label %67

67:                                               ; preds = %58, %54, %44, %29, %16
  call void @llvm.lifetime.end.p0(i64 48, ptr %9) #8
  call void @llvm.lifetime.end.p0(i64 8, ptr %8) #8
  %68 = load i32, ptr %4, align 4
  ret i32 %68
}