; Function Attrs: nounwind uwtable
define internal fastcc range(i32 -2147483648, 1) i32 @latm_decode_extradata(ptr noundef %0, ptr noundef %1, i32 noundef %2) unnamed_addr #0 {
  %4 = alloca %struct.MPEG4AudioConfig, align 4
  %5 = getelementptr inbounds nuw i8, ptr %0, i64 24
  %6 = load ptr, ptr %5, align 8, !tbaa !38
  call void @llvm.lifetime.start.p0(i64 48, ptr nonnull %4) #6
  %7 = icmp sgt i32 %2, 1024
  br i1 %7, label %8, label %9

8:                                                ; preds = %3
  tail call void (ptr, i32, ptr, ...) @av_log(ptr noundef nonnull %0, i32 noundef 16, ptr noundef nonnull @.str.10) #6
  br label %28

9:                                                ; preds = %3
  %10 = call i32 @avpriv_mpeg4audio_get_config2(ptr noundef nonnull %4, ptr noundef %1, i32 noundef %2, i32 noundef 1, ptr noundef nonnull %0) #6
  %11 = getelementptr inbounds nuw i8, ptr %6, i64 8
  store i32 %10, ptr %11, align 8, !tbaa !53
  %12 = icmp slt i32 %10, 0
  br i1 %12, label %28, label %13

13:                                               ; preds = %9
  %14 = getelementptr inbounds nuw i8, ptr %6, i64 16
  %15 = load i32, ptr %14, align 8, !tbaa !52
  %16 = icmp ne i32 %15, 36
  %17 = and i32 %10, 7
  %.not = icmp eq i32 %17, 0
  %or.cond20 = or i1 %.not, %16
  br i1 %or.cond20, label %19, label %18

18:                                               ; preds = %13
  call void (ptr, i32, ptr, ...) @av_log(ptr noundef nonnull %0, i32 noundef 16, ptr noundef nonnull @.str.11) #6
  br label %28

19:                                               ; preds = %13
  %20 = load i32, ptr %4, align 4, !tbaa !61
  %21 = icmp sgt i32 %20, 5
  %22 = icmp ne i32 %20, 36
  %or.cond = and i1 %21, %22
  br i1 %or.cond, label %23, label %24

23:                                               ; preds = %19
  call void (ptr, i32, ptr, ...) @av_log(ptr noundef nonnull %0, i32 noundef 16, ptr noundef nonnull @.str.12, i32 noundef %20) #6
  br label %28

24:                                               ; preds = %19
  %25 = getelementptr inbounds nuw i8, ptr %4, i64 12
  %26 = load i32, ptr %25, align 4, !tbaa !63
  %27 = getelementptr inbounds nuw i8, ptr %6, i64 12
  store i32 %26, ptr %27, align 4, !tbaa !54
  store i32 %20, ptr %14, align 8, !tbaa !52
  br label %28

28:                                               ; preds = %9, %24, %23, %18, %8
  %.0 = phi i32 [ -1094995529, %8 ], [ -1094995529, %18 ], [ -1094995529, %23 ], [ 0, %24 ], [ %10, %9 ]
  call void @llvm.lifetime.end.p0(i64 48, ptr nonnull %4) #6
  ret i32 %.0
}